; Function Attrs: mustprogress nounwind uwtable
define hidden noundef zeroext i1 @_ZNK6Method21is_static_initializerEv(ptr nocapture noundef nonnull readonly align 8 dereferenceable(88) %0) local_unnamed_addr #0 align 2 {
  %2 = getelementptr inbounds i8, ptr %0, i64 8
  %3 = load ptr, ptr %2, align 8
  %4 = getelementptr inbounds i8, ptr %3, i64 8
  %5 = load ptr, ptr %4, align 8
  %6 = getelementptr inbounds i8, ptr %3, i64 36
  %7 = load i16, ptr %6, align 4
  %8 = getelementptr inbounds i8, ptr %5, i64 72
  %9 = zext i16 %7 to i64
  %10 = getelementptr inbounds i64, ptr %8, i64 %9
  %11 = load ptr, ptr %10, align 8
  %12 = load ptr, ptr getelementptr inbounds (i8, ptr @_ZN6Symbol11_vm_symbolsE, i64 3064), align 8
  %13 = icmp eq ptr %11, %12
  br i1 %13, label %14, label %_ZNK6Method27has_valid_initializer_flagsEv.exit

14:                                               ; preds = %1
  %15 = getelementptr inbounds i8, ptr %0, i64 40
  %.sroa.0.0.copyload.i.i.i = load i32, ptr %15, align 8
  %16 = and i32 %.sroa.0.0.copyload.i.i.i, 8
  %.not.i = icmp eq i32 %16, 0
  br i1 %.not.i, label %17, label %_ZNK6Method27has_valid_initializer_flagsEv.exit

17:                                               ; preds = %14
  %18 = getelementptr inbounds i8, ptr %5, i64 24
  %19 = load ptr, ptr %18, align 8
  %20 = tail call noundef zeroext i16 @_ZNK13InstanceKlass13major_versionEv(ptr noundef nonnull align 8 dereferenceable(464) %19) #23
  %21 = icmp ult i16 %20, 51
  br label %_ZNK6Method27has_valid_initializer_flagsEv.exit

_ZNK6Method27has_valid_initializer_flagsEv.exit:  ; preds = %17, %14, %1
  %22 = phi i1 [ false, %1 ], [ true, %14 ], [ %21, %17 ]
  ret i1 %22
}